target datalayout = "e-m:e-p270:32:32-p271:32:32-p272:64:64-i64:64-i128:128-f80:128-n8:16:32:64-S128"
target triple = "x86_64-pc-linux-gnu"

@g_assert_poison = external global ptr, align 8
@.str = private unnamed_addr constant [42 x i8] c"src/hotspot/share/services/heapDumper.cpp\00", align 1

; Function Attrs: mustprogress nounwind uwtable
define hidden noundef zeroext i8 @_ZN13DumperSupport8type2tagE9BasicType(i8 noundef zeroext %0) #1 align 2 {
  %2 = alloca i8, align 1
  %3 = alloca i8, align 1
  store i8 %0, ptr %3, align 1
  %4 = load i8, ptr %3, align 1
  %5 = zext i8 %4 to i32
  switch i32 %5, label %14 [
    i32 8, label %6
    i32 5, label %7
    i32 6, label %8
    i32 7, label %9
    i32 10, label %10
    i32 11, label %11
    i32 9, label %12
    i32 4, label %13
  ]

6:                                                ; preds = %1
  store i8 8, ptr %2, align 1
  br label %18

7:                                                ; preds = %1
  store i8 5, ptr %2, align 1
  br label %18

8:                                                ; preds = %1
  store i8 6, ptr %2, align 1
  br label %18

9:                                                ; preds = %1
  store i8 7, ptr %2, align 1
  br label %18

10:                                               ; preds = %1
  store i8 10, ptr %2, align 1
  br label %18

11:                                               ; preds = %1
  store i8 11, ptr %2, align 1
  br label %18

12:                                               ; preds = %1
  store i8 9, ptr %2, align 1
  br label %18

13:                                               ; preds = %1
  store i8 4, ptr %2, align 1
  br label %18

14:                                               ; preds = %1
  br label %15

15:                                               ; preds = %14
  %16 = load ptr, ptr @g_assert_poison, align 8
  store i8 88, ptr %16, align 1
  call void @_Z28report_should_not_reach_herePKci(ptr noundef @.str, i32 noundef 945) #13
  unreachable

17:                                               ; No predecessors!
  store i8 8, ptr %2, align 1
  br label %18

18:                                               ; preds = %17, %13, %12, %11, %10, %9, %8, %7, %6
  %19 = load i8, ptr %2, align 1
  ret i8 %19
}