; Function Attrs: mustprogress nounwind uwtable
define hidden noundef zeroext range(i8 4, 12) i8 @_ZN13DumperSupport8type2tagE9BasicType(i8 noundef returned zeroext %0) local_unnamed_addr #3 align 2 {
  %.off = add i8 %0, -4
  %switch = icmp ult i8 %.off, 8
  br i1 %switch, label %4, label %2

2:                                                ; preds = %1
  %3 = load ptr, ptr @g_assert_poison, align 8
  store i8 88, ptr %3, align 1
  tail call void @_Z28report_should_not_reach_herePKci(ptr noundef nonnull @.str, i32 noundef 945) #20
  unreachable

4:                                                ; preds = %1
  ret i8 %0
}